target datalayout = "e-m:e-p270:32:32-p271:32:32-p272:64:64-i64:64-i128:128-f80:128-n8:16:32:64-S128"
target triple = "x86_64-pc-linux-gnu"

%struct.List = type { i32, i32, i32, ptr, [0 x %union.ListCell] }
%union.ListCell = type { ptr }
%struct.ParseNamespaceItem = type { ptr, ptr, i32, ptr, ptr, i8, i8, i8, i8, i32 }
%struct.RangeTblEntry = type { i32, ptr, ptr, i32, i32, i8, i8, i32, i32, ptr, ptr, i8, i32, i32, ptr, ptr, ptr, ptr, ptr, i8, ptr, ptr, ptr, i32, i8, ptr, ptr, ptr, ptr, double, ptr, i8, i8, ptr }
%struct.ParseNamespaceColumn = type { i32, i16, i32, i32, i32, i32, i32, i16, i8 }
%struct.ForThreeState = type { ptr, ptr, ptr, i32 }

; Function Attrs: inlinehint nounwind uwtable
define internal i32 @list_length(ptr noundef %0) #6 {
  %2 = alloca ptr, align 8
  store ptr %0, ptr %2, align 8
  %3 = load ptr, ptr %2, align 8
  %4 = icmp ne ptr %3, null
  br i1 %4, label %5, label %9

5:                                                ; preds = %1
  %6 = load ptr, ptr %2, align 8
  %7 = getelementptr inbounds nuw %struct.List, ptr %6, i32 0, i32 1
  %8 = load i32, ptr %7, align 4
  br label %10

9:                                                ; preds = %1
  br label %10

10:                                               ; preds = %9, %5
  %11 = phi i32 [ %8, %5 ], [ 0, %9 ]
  ret i32 %11
}

; Function Attrs: nounwind uwtable
define internal ptr @buildNSItemFromLists(ptr noundef %0, i32 noundef %1, ptr noundef %2, ptr noundef %3, ptr noundef %4) #0 {
  %6 = alloca ptr, align 8
  %7 = alloca i32, align 4
  %8 = alloca ptr, align 8
  %9 = alloca ptr, align 8
  %10 = alloca ptr, align 8
  %11 = alloca ptr, align 8
  %12 = alloca ptr, align 8
  %13 = alloca i32, align 4
  %14 = alloca i32, align 4
  %15 = alloca ptr, align 8
  %16 = alloca ptr, align 8
  %17 = alloca ptr, align 8
  %18 = alloca %struct.ForThreeState, align 8
  store ptr %0, ptr %6, align 8
  store i32 %1, ptr %7, align 4
  store ptr %2, ptr %8, align 8
  store ptr %3, ptr %9, align 8
  store ptr %4, ptr %10, align 8
  call void @llvm.lifetime.start.p0(i64 8, ptr %11) #8
  call void @llvm.lifetime.start.p0(i64 8, ptr %12) #8
  call void @llvm.lifetime.start.p0(i64 4, ptr %13) #8
  %19 = load ptr, ptr %8, align 8
  %20 = call i32 @list_length(ptr noundef %19)
  store i32 %20, ptr %13, align 4
  call void @llvm.lifetime.start.p0(i64 4, ptr %14) #8
  call void @llvm.lifetime.start.p0(i64 8, ptr %15) #8
  call void @llvm.lifetime.start.p0(i64 8, ptr %16) #8
  call void @llvm.lifetime.start.p0(i64 8, ptr %17) #8
  %21 = load i32, ptr %13, align 4
  %22 = sext i32 %21 to i64
  %23 = mul i64 %22, 32
  %24 = call ptr @palloc0(i64 noundef %23)
  store ptr %24, ptr %12, align 8
  store i32 0, ptr %14, align 4
  call void @llvm.lifetime.start.p0(i64 32, ptr %18) #8
  %25 = getelementptr inbounds nuw %struct.ForThreeState, ptr %18, i32 0, i32 0
  %26 = load ptr, ptr %8, align 8
  store ptr %26, ptr %25, align 8
  %27 = getelementptr inbounds nuw %struct.ForThreeState, ptr %18, i32 0, i32 1
  %28 = load ptr, ptr %9, align 8
  store ptr %28, ptr %27, align 8
  %29 = getelementptr inbounds nuw %struct.ForThreeState, ptr %18, i32 0, i32 2
  %30 = load ptr, ptr %10, align 8
  store ptr %30, ptr %29, align 8
  %31 = getelementptr inbounds nuw %struct.ForThreeState, ptr %18, i32 0, i32 3
  store i32 0, ptr %31, align 8
  %32 = getelementptr i8, ptr %18, i64 28
  call void @llvm.memset.p0.i64(ptr align 4 %32, i8 0, i64 4, i1 false)
  br label %33

33:                                               ; preds = %166, %5
  %34 = getelementptr inbounds nuw %struct.ForThreeState, ptr %18, i32 0, i32 0
  %35 = load ptr, ptr %34, align 8
  %36 = icmp ne ptr %35, null
  br i1 %36, label %37, label %54

37:                                               ; preds = %33
  %38 = getelementptr inbounds nuw %struct.ForThreeState, ptr %18, i32 0, i32 3
  %39 = load i32, ptr %38, align 8
  %40 = getelementptr inbounds nuw %struct.ForThreeState, ptr %18, i32 0, i32 0
  %41 = load ptr, ptr %40, align 8
  %42 = getelementptr inbounds nuw %struct.List, ptr %41, i32 0, i32 1
  %43 = load i32, ptr %42, align 4
  %44 = icmp slt i32 %39, %43
  br i1 %44, label %45, label %54

45:                                               ; preds = %37
  %46 = getelementptr inbounds nuw %struct.ForThreeState, ptr %18, i32 0, i32 0
  %47 = load ptr, ptr %46, align 8
  %48 = getelementptr inbounds nuw %struct.List, ptr %47, i32 0, i32 3
  %49 = load ptr, ptr %48, align 8
  %50 = getelementptr inbounds nuw %struct.ForThreeState, ptr %18, i32 0, i32 3
  %51 = load i32, ptr %50, align 8
  %52 = sext i32 %51 to i64
  %53 = getelementptr inbounds %union.ListCell, ptr %49, i64 %52
  br label %55

54:                                               ; preds = %37, %33
  br label %55

55:                                               ; preds = %54, %45
  %56 = phi ptr [ %53, %45 ], [ null, %54 ]
  store ptr %56, ptr %15, align 8
  %57 = getelementptr inbounds nuw %struct.ForThreeState, ptr %18, i32 0, i32 1
  %58 = load ptr, ptr %57, align 8
  %59 = icmp ne ptr %58, null
  br i1 %59, label %60, label %77

60:                                               ; preds = %55
  %61 = getelementptr inbounds nuw %struct.ForThreeState, ptr %18, i32 0, i32 3
  %62 = load i32, ptr %61, align 8
  %63 = getelementptr inbounds nuw %struct.ForThreeState, ptr %18, i32 0, i32 1
  %64 = load ptr, ptr %63, align 8
  %65 = getelementptr inbounds nuw %struct.List, ptr %64, i32 0, i32 1
  %66 = load i32, ptr %65, align 4
  %67 = icmp slt i32 %62, %66
  br i1 %67, label %68, label %77

68:                                               ; preds = %60
  %69 = getelementptr inbounds nuw %struct.ForThreeState, ptr %18, i32 0, i32 1
  %70 = load ptr, ptr %69, align 8
  %71 = getelementptr inbounds nuw %struct.List, ptr %70, i32 0, i32 3
  %72 = load ptr, ptr %71, align 8
  %73 = getelementptr inbounds nuw %struct.ForThreeState, ptr %18, i32 0, i32 3
  %74 = load i32, ptr %73, align 8
  %75 = sext i32 %74 to i64
  %76 = getelementptr inbounds %union.ListCell, ptr %72, i64 %75
  br label %78

77:                                               ; preds = %60, %55
  br label %78

78:                                               ; preds = %77, %68
  %79 = phi ptr [ %76, %68 ], [ null, %77 ]
  store ptr %79, ptr %16, align 8
  %80 = getelementptr inbounds nuw %struct.ForThreeState, ptr %18, i32 0, i32 2
  %81 = load ptr, ptr %80, align 8
  %82 = icmp ne ptr %81, null
  br i1 %82, label %83, label %100

83:                                               ; preds = %78
  %84 = getelementptr inbounds nuw %struct.ForThreeState, ptr %18, i32 0, i32 3
  %85 = load i32, ptr %84, align 8
  %86 = getelementptr inbounds nuw %struct.ForThreeState, ptr %18, i32 0, i32 2
  %87 = load ptr, ptr %86, align 8
  %88 = getelementptr inbounds nuw %struct.List, ptr %87, i32 0, i32 1
  %89 = load i32, ptr %88, align 4
  %90 = icmp slt i32 %85, %89
  br i1 %90, label %91, label %100

91:                                               ; preds = %83
  %92 = getelementptr inbounds nuw %struct.ForThreeState, ptr %18, i32 0, i32 2
  %93 = load ptr, ptr %92, align 8
  %94 = getelementptr inbounds nuw %struct.List, ptr %93, i32 0, i32 3
  %95 = load ptr, ptr %94, align 8
  %96 = getelementptr inbounds nuw %struct.ForThreeState, ptr %18, i32 0, i32 3
  %97 = load i32, ptr %96, align 8
  %98 = sext i32 %97 to i64
  %99 = getelementptr inbounds %union.ListCell, ptr %95, i64 %98
  br label %101

100:                                              ; preds = %83, %78
  br label %101

101:                                              ; preds = %100, %91
  %102 = phi ptr [ %99, %91 ], [ null, %100 ]
  store ptr %102, ptr %17, align 8
  %103 = load ptr, ptr %15, align 8
  %104 = icmp ne ptr %103, null
  br i1 %104, label %105, label %111

105:                                              ; preds = %101
  %106 = load ptr, ptr %16, align 8
  %107 = icmp ne ptr %106, null
  br i1 %107, label %108, label %111

108:                                              ; preds = %105
  %109 = load ptr, ptr %17, align 8
  %110 = icmp ne ptr %109, null
  br label %111

111:                                              ; preds = %108, %105, %101
  %112 = phi i1 [ false, %105 ], [ false, %101 ], [ %110, %108 ]
  br i1 %112, label %114, label %113

113:                                              ; preds = %111
  call void @llvm.lifetime.end.p0(i64 32, ptr %18) #8
  br label %170

114:                                              ; preds = %111
  %115 = load i32, ptr %7, align 4
  %116 = load ptr, ptr %12, align 8
  %117 = load i32, ptr %14, align 4
  %118 = sext i32 %117 to i64
  %119 = getelementptr inbounds %struct.ParseNamespaceColumn, ptr %116, i64 %118
  %120 = getelementptr inbounds nuw %struct.ParseNamespaceColumn, ptr %119, i32 0, i32 0
  store i32 %115, ptr %120, align 4
  %121 = load i32, ptr %14, align 4
  %122 = add i32 %121, 1
  %123 = trunc i32 %122 to i16
  %124 = load ptr, ptr %12, align 8
  %125 = load i32, ptr %14, align 4
  %126 = sext i32 %125 to i64
  %127 = getelementptr inbounds %struct.ParseNamespaceColumn, ptr %124, i64 %126
  %128 = getelementptr inbounds nuw %struct.ParseNamespaceColumn, ptr %127, i32 0, i32 1
  store i16 %123, ptr %128, align 4
  %129 = load ptr, ptr %15, align 8
  %130 = load i32, ptr %129, align 8
  %131 = load ptr, ptr %12, align 8
  %132 = load i32, ptr %14, align 4
  %133 = sext i32 %132 to i64
  %134 = getelementptr inbounds %struct.ParseNamespaceColumn, ptr %131, i64 %133
  %135 = getelementptr inbounds nuw %struct.ParseNamespaceColumn, ptr %134, i32 0, i32 2
  store i32 %130, ptr %135, align 4
  %136 = load ptr, ptr %16, align 8
  %137 = load i32, ptr %136, align 8
  %138 = load ptr, ptr %12, align 8
  %139 = load i32, ptr %14, align 4
  %140 = sext i32 %139 to i64
  %141 = getelementptr inbounds %struct.ParseNamespaceColumn, ptr %138, i64 %140
  %142 = getelementptr inbounds nuw %struct.ParseNamespaceColumn, ptr %141, i32 0, i32 3
  store i32 %137, ptr %142, align 4
  %143 = load ptr, ptr %17, align 8
  %144 = load i32, ptr %143, align 8
  %145 = load ptr, ptr %12, align 8
  %146 = load i32, ptr %14, align 4
  %147 = sext i32 %146 to i64
  %148 = getelementptr inbounds %struct.ParseNamespaceColumn, ptr %145, i64 %147
  %149 = getelementptr inbounds nuw %struct.ParseNamespaceColumn, ptr %148, i32 0, i32 4
  store i32 %144, ptr %149, align 4
  %150 = load i32, ptr %7, align 4
  %151 = load ptr, ptr %12, align 8
  %152 = load i32, ptr %14, align 4
  %153 = sext i32 %152 to i64
  %154 = getelementptr inbounds %struct.ParseNamespaceColumn, ptr %151, i64 %153
  %155 = getelementptr inbounds nuw %struct.ParseNamespaceColumn, ptr %154, i32 0, i32 6
  store i32 %150, ptr %155, align 4
  %156 = load i32, ptr %14, align 4
  %157 = add i32 %156, 1
  %158 = trunc i32 %157 to i16
  %159 = load ptr, ptr %12, align 8
  %160 = load i32, ptr %14, align 4
  %161 = sext i32 %160 to i64
  %162 = getelementptr inbounds %struct.ParseNamespaceColumn, ptr %159, i64 %161
  %163 = getelementptr inbounds nuw %struct.ParseNamespaceColumn, ptr %162, i32 0, i32 7
  store i16 %158, ptr %163, align 4
  %164 = load i32, ptr %14, align 4
  %165 = add i32 %164, 1
  store i32 %165, ptr %14, align 4
  br label %166

166:                                              ; preds = %114
  %167 = getelementptr inbounds nuw %struct.ForThreeState, ptr %18, i32 0, i32 3
  %168 = load i32, ptr %167, align 8
  %169 = add i32 %168, 1
  store i32 %169, ptr %167, align 8
  br label %33, !llvm.loop !31

170:                                              ; preds = %113
  %171 = call ptr @palloc(i64 noundef 48)
  store ptr %171, ptr %11, align 8
  %172 = load ptr, ptr %6, align 8
  %173 = getelementptr inbounds nuw %struct.RangeTblEntry, ptr %172, i32 0, i32 2
  %174 = load ptr, ptr %173, align 8
  %175 = load ptr, ptr %11, align 8
  %176 = getelementptr inbounds nuw %struct.ParseNamespaceItem, ptr %175, i32 0, i32 0
  store ptr %174, ptr %176, align 8
  %177 = load ptr, ptr %6, align 8
  %178 = load ptr, ptr %11, align 8
  %179 = getelementptr inbounds nuw %struct.ParseNamespaceItem, ptr %178, i32 0, i32 1
  store ptr %177, ptr %179, align 8
  %180 = load i32, ptr %7, align 4
  %181 = load ptr, ptr %11, align 8
  %182 = getelementptr inbounds nuw %struct.ParseNamespaceItem, ptr %181, i32 0, i32 2
  store i32 %180, ptr %182, align 8
  %183 = load ptr, ptr %11, align 8
  %184 = getelementptr inbounds nuw %struct.ParseNamespaceItem, ptr %183, i32 0, i32 3
  store ptr null, ptr %184, align 8
  %185 = load ptr, ptr %12, align 8
  %186 = load ptr, ptr %11, align 8
  %187 = getelementptr inbounds nuw %struct.ParseNamespaceItem, ptr %186, i32 0, i32 4
  store ptr %185, ptr %187, align 8
  %188 = load ptr, ptr %11, align 8
  %189 = getelementptr inbounds nuw %struct.ParseNamespaceItem, ptr %188, i32 0, i32 5
  store i8 1, ptr %189, align 8
  %190 = load ptr, ptr %11, align 8
  %191 = getelementptr inbounds nuw %struct.ParseNamespaceItem, ptr %190, i32 0, i32 6
  store i8 1, ptr %191, align 1
  %192 = load ptr, ptr %11, align 8
  %193 = getelementptr inbounds nuw %struct.ParseNamespaceItem, ptr %192, i32 0, i32 7
  store i8 0, ptr %193, align 2
  %194 = load ptr, ptr %11, align 8
  %195 = getelementptr inbounds nuw %struct.ParseNamespaceItem, ptr %194, i32 0, i32 8
  store i8 1, ptr %195, align 1
  %196 = load ptr, ptr %11, align 8
  %197 = getelementptr inbounds nuw %struct.ParseNamespaceItem, ptr %196, i32 0, i32 9
  store i32 0, ptr %197, align 4
  %198 = load ptr, ptr %11, align 8
  call void @llvm.lifetime.end.p0(i64 8, ptr %17) #8
  call void @llvm.lifetime.end.p0(i64 8, ptr %16) #8
  call void @llvm.lifetime.end.p0(i64 8, ptr %15) #8
  call void @llvm.lifetime.end.p0(i64 4, ptr %14) #8
  call void @llvm.lifetime.end.p0(i64 4, ptr %13) #8
  call void @llvm.lifetime.end.p0(i64 8, ptr %12) #8
  call void @llvm.lifetime.end.p0(i64 8, ptr %11) #8
  ret ptr %198
}