; Function Attrs: nounwind uwtable
define internal fastcc noundef ptr @buildNSItemFromLists(ptr noundef %0, i32 noundef %1, ptr noundef readonly captures(address_is_null) %2, ptr noundef readonly captures(address_is_null) %3, ptr noundef readonly captures(address_is_null) %4) unnamed_addr #0 {
  %.not.i = icmp eq ptr %2, null
  br i1 %.not.i, label %list_length.exit, label %list_length.exit.thread

list_length.exit:                                 ; preds = %5
  %6 = tail call ptr @palloc0(i64 noundef 0) #11
  br label %.critedge

list_length.exit.thread:                          ; preds = %5
  %7 = getelementptr inbounds nuw i8, ptr %2, i64 4
  %8 = load i32, ptr %7, align 4
  %9 = sext i32 %8 to i64
  %10 = shl nsw i64 %9, 5
  %11 = tail call ptr @palloc0(i64 noundef %10) #11
  %12 = getelementptr inbounds nuw i8, ptr %4, i64 4
  %.not6581 = icmp eq ptr %3, null
  %.not6682 = icmp eq ptr %4, null
  %13 = getelementptr inbounds nuw i8, ptr %2, i64 4
  %14 = getelementptr inbounds nuw i8, ptr %2, i64 16
  %15 = getelementptr inbounds nuw i8, ptr %3, i64 4
  %16 = getelementptr inbounds nuw i8, ptr %3, i64 16
  %17 = getelementptr inbounds nuw i8, ptr %4, i64 16
  %brmerge = or i1 %.not6682, %.not6581
  br i1 %brmerge, label %.critedge, label %list_length.exit.split.split.split

list_length.exit.split.split.split:               ; preds = %list_length.exit.thread, %55
  %indvars.iv = phi i64 [ %indvars.iv.next, %55 ], [ 0, %list_length.exit.thread ]
  %18 = load i32, ptr %13, align 4
  %19 = sext i32 %18 to i64
  %20 = icmp slt i64 %indvars.iv, %19
  br i1 %20, label %21, label %24

21:                                               ; preds = %list_length.exit.split.split.split
  %22 = load ptr, ptr %14, align 8
  %23 = getelementptr inbounds nuw %union.ListCell, ptr %22, i64 %indvars.iv
  br label %24

24:                                               ; preds = %list_length.exit.split.split.split, %21
  %25 = phi ptr [ %23, %21 ], [ null, %list_length.exit.split.split.split ]
  %26 = load i32, ptr %15, align 4
  %27 = sext i32 %26 to i64
  %28 = icmp slt i64 %indvars.iv, %27
  br i1 %28, label %29, label %32

29:                                               ; preds = %24
  %30 = load ptr, ptr %16, align 8
  %31 = getelementptr inbounds nuw %union.ListCell, ptr %30, i64 %indvars.iv
  br label %32

32:                                               ; preds = %24, %29
  %33 = phi ptr [ %31, %29 ], [ null, %24 ]
  %34 = load i32, ptr %12, align 4
  %35 = sext i32 %34 to i64
  %36 = icmp slt i64 %indvars.iv, %35
  br i1 %36, label %37, label %.critedge

37:                                               ; preds = %32
  %38 = load ptr, ptr %17, align 8
  %39 = icmp ne ptr %25, null
  %40 = icmp ne ptr %33, null
  %or.cond = select i1 %39, i1 %40, i1 false
  %41 = icmp ne ptr %38, null
  %or.cond3 = select i1 %or.cond, i1 %41, i1 false
  br i1 %or.cond3, label %55, label %.critedge

.critedge:                                        ; preds = %37, %32, %list_length.exit, %list_length.exit.thread
  %42 = phi ptr [ %11, %list_length.exit.thread ], [ %6, %list_length.exit ], [ %11, %32 ], [ %11, %37 ]
  %43 = tail call ptr @palloc(i64 noundef 48) #11
  %44 = getelementptr inbounds nuw i8, ptr %0, i64 16
  %45 = load ptr, ptr %44, align 8
  store ptr %45, ptr %43, align 8
  %46 = getelementptr inbounds nuw i8, ptr %43, i64 8
  store ptr %0, ptr %46, align 8
  %47 = getelementptr inbounds nuw i8, ptr %43, i64 16
  store i32 %1, ptr %47, align 8
  %48 = getelementptr inbounds nuw i8, ptr %43, i64 24
  store ptr null, ptr %48, align 8
  %49 = getelementptr inbounds nuw i8, ptr %43, i64 32
  store ptr %42, ptr %49, align 8
  %50 = getelementptr inbounds nuw i8, ptr %43, i64 40
  store i8 1, ptr %50, align 8
  %51 = getelementptr inbounds nuw i8, ptr %43, i64 41
  store i8 1, ptr %51, align 1
  %52 = getelementptr inbounds nuw i8, ptr %43, i64 42
  store i8 0, ptr %52, align 2
  %53 = getelementptr inbounds nuw i8, ptr %43, i64 43
  store i8 1, ptr %53, align 1
  %54 = getelementptr inbounds nuw i8, ptr %43, i64 44
  store i32 0, ptr %54, align 4
  ret ptr %43

55:                                               ; preds = %37
  %56 = getelementptr inbounds nuw %union.ListCell, ptr %38, i64 %indvars.iv
  %57 = getelementptr inbounds nuw %struct.ParseNamespaceColumn, ptr %11, i64 %indvars.iv
  store i32 %1, ptr %57, align 4
  %indvars.iv.next = add nuw nsw i64 %indvars.iv, 1
  %58 = trunc i64 %indvars.iv.next to i16
  %59 = getelementptr inbounds nuw i8, ptr %57, i64 4
  store i16 %58, ptr %59, align 4
  %60 = load i32, ptr %25, align 8
  %61 = getelementptr inbounds nuw i8, ptr %57, i64 8
  store i32 %60, ptr %61, align 4
  %62 = load i32, ptr %33, align 8
  %63 = getelementptr inbounds nuw i8, ptr %57, i64 12
  store i32 %62, ptr %63, align 4
  %64 = load i32, ptr %56, align 8
  %65 = getelementptr inbounds nuw i8, ptr %57, i64 16
  store i32 %64, ptr %65, align 4
  %66 = getelementptr inbounds nuw i8, ptr %57, i64 24
  store i32 %1, ptr %66, align 4
  %67 = getelementptr inbounds nuw i8, ptr %57, i64 28
  store i16 %58, ptr %67, align 4
  br label %list_length.exit.split.split.split, !llvm.loop !18
}